; ModuleID = '40/947.c'
source_filename = "40/947.c"
target datalayout = "e-m:e-p270:32:32-p271:32:32-p272:64:64-i64:64-f80:128-n8:16:32:64-S128"
target triple = "x86_64-pc-linux-gnu"

@.str = private unnamed_addr constant [16 x i8] c"%lf%lf%lf%lf%lf\00", align 1
@.str.1 = private unnamed_addr constant [14 x i8] c"Invalid input\00", align 1
@.str.2 = private unnamed_addr constant [5 x i8] c"%.4f\00", align 1

; Function Attrs: noinline nounwind uwtable
define dso_local i32 @main() #0 {
  %1 = alloca i32, align 4
  %2 = alloca double, align 8
  %3 = alloca double, align 8
  %4 = alloca double, align 8
  %5 = alloca double, align 8
  %6 = alloca double, align 8
  %7 = alloca double, align 8
  store i32 0, i32* %1, align 4
  %8 = call i32 (i8*, ...) @__isoc99_scanf(i8* getelementptr inbounds ([16 x i8], [16 x i8]* @.str, i64 0, i64 0), double* %2, double* %3, double* %4, double* %5, double* %6)
  %9 = load double, double* %3, align 8
  %10 = load double, double* %4, align 8
  %11 = fadd double %9, %10
  %12 = load double, double* %5, align 8
  %13 = fadd double %11, %12
  %14 = load double, double* %2, align 8
  %15 = fsub double %13, %14
  %16 = fdiv double %15, 2.000000e+00
  %17 = load double, double* %2, align 8
  %18 = load double, double* %4, align 8
  %19 = fadd double %17, %18
  %20 = load double, double* %5, align 8
  %21 = fadd double %19, %20
  %22 = load double, double* %3, align 8
  %23 = fsub double %21, %22
  %24 = fmul double %16, %23
  %25 = fdiv double %24, 2.000000e+00
  %26 = load double, double* %2, align 8
  %27 = load double, double* %3, align 8
  %28 = fadd double %26, %27
  %29 = load double, double* %5, align 8
  %30 = fadd double %28, %29
  %31 = load double, double* %4, align 8
  %32 = fsub double %30, %31
  %33 = fmul double %25, %32
  %34 = fdiv double %33, 2.000000e+00
  %35 = load double, double* %2, align 8
  %36 = load double, double* %3, align 8
  %37 = fadd double %35, %36
  %38 = load double, double* %4, align 8
  %39 = fadd double %37, %38
  %40 = load double, double* %5, align 8
  %41 = fsub double %39, %40
  %42 = fmul double %34, %41
  %43 = fdiv double %42, 2.000000e+00
  %44 = load double, double* %2, align 8
  %45 = load double, double* %3, align 8
  %46 = fmul double %44, %45
  %47 = load double, double* %4, align 8
  %48 = fmul double %46, %47
  %49 = load double, double* %5, align 8
  %50 = fmul double %48, %49
  %51 = load double, double* %6, align 8
  %52 = fmul double %51, 3.140000e+00
  %53 = fdiv double %52, 3.600000e+02
  %54 = call double @cos(double %53) #3
  %55 = fmul double %50, %54
  %56 = load double, double* %6, align 8
  %57 = fmul double %56, 3.140000e+00
  %58 = fdiv double %57, 3.600000e+02
  %59 = call double @cos(double %58) #3
  %60 = fmul double %55, %59
  %61 = fsub double %43, %60
  %62 = fcmp olt double %61, 0.000000e+00
  br i1 %62, label %63, label %65

63:                                               ; preds = %0
  %64 = call i32 (i8*, ...) @printf(i8* getelementptr inbounds ([14 x i8], [14 x i8]* @.str.1, i64 0, i64 0))
  br label %122

65:                                               ; preds = %0
  %66 = load double, double* %3, align 8
  %67 = load double, double* %4, align 8
  %68 = fadd double %66, %67
  %69 = load double, double* %5, align 8
  %70 = fadd double %68, %69
  %71 = load double, double* %2, align 8
  %72 = fsub double %70, %71
  %73 = fdiv double %72, 2.000000e+00
  %74 = load double, double* %2, align 8
  %75 = load double, double* %4, align 8
  %76 = fadd double %74, %75
  %77 = load double, double* %5, align 8
  %78 = fadd double %76, %77
  %79 = load double, double* %3, align 8
  %80 = fsub double %78, %79
  %81 = fmul double %73, %80
  %82 = fdiv double %81, 2.000000e+00
  %83 = load double, double* %2, align 8
  %84 = load double, double* %3, align 8
  %85 = fadd double %83, %84
  %86 = load double, double* %5, align 8
  %87 = fadd double %85, %86
  %88 = load double, double* %4, align 8
  %89 = fsub double %87, %88
  %90 = fmul double %82, %89
  %91 = fdiv double %90, 2.000000e+00
  %92 = load double, double* %2, align 8
  %93 = load double, double* %3, align 8
  %94 = fadd double %92, %93
  %95 = load double, double* %4, align 8
  %96 = fadd double %94, %95
  %97 = load double, double* %5, align 8
  %98 = fsub double %96, %97
  %99 = fmul double %91, %98
  %100 = fdiv double %99, 2.000000e+00
  %101 = load double, double* %2, align 8
  %102 = load double, double* %3, align 8
  %103 = fmul double %101, %102
  %104 = load double, double* %4, align 8
  %105 = fmul double %103, %104
  %106 = load double, double* %5, align 8
  %107 = fmul double %105, %106
  %108 = load double, double* %6, align 8
  %109 = fmul double %108, 3.140000e+00
  %110 = fdiv double %109, 3.600000e+02
  %111 = call double @cos(double %110) #3
  %112 = fmul double %107, %111
  %113 = load double, double* %6, align 8
  %114 = fmul double %113, 3.140000e+00
  %115 = fdiv double %114, 3.600000e+02
  %116 = call double @cos(double %115) #3
  %117 = fmul double %112, %116
  %118 = fsub double %100, %117
  %119 = call double @sqrt(double %118) #3
  store double %119, double* %7, align 8
  %120 = load double, double* %7, align 8
  %121 = call i32 (i8*, ...) @printf(i8* getelementptr inbounds ([5 x i8], [5 x i8]* @.str.2, i64 0, i64 0), double %120)
  br label %122

122:                                              ; preds = %65, %63
  ret i32 0
}

declare dso_local i32 @__isoc99_scanf(i8*, ...) #1

; Function Attrs: nounwind
declare dso_local double @cos(double) #2

declare dso_local i32 @printf(i8*, ...) #1

; Function Attrs: nounwind
declare dso_local double @sqrt(double) #2


!llvm.module.flags = !{!0}
!llvm.ident = !{!1}

!0 = !{i32 1, !"wchar_size", i32 4}
!1 = !{!"clang version 10.0.0-4ubuntu1 "}
